target datalayout = "e-m:e-p270:32:32-p271:32:32-p272:64:64-i64:64-i128:128-f80:128-n8:16:32:64-S128"
target triple = "x86_64-pc-linux-gnu"

%struct.stbi__write_context = type { ptr, ptr, [64 x i8], i32 }

; Function Attrs: nounwind uwtable
define void @stbi__start_write_callbacks(ptr noundef %0, ptr noundef %1, ptr noundef %2) #0 {
  %4 = alloca ptr, align 8
  %5 = alloca ptr, align 8
  %6 = alloca ptr, align 8
  store ptr %0, ptr %4, align 8, !tbaa !7
  store ptr %1, ptr %5, align 8, !tbaa !7
  store ptr %2, ptr %6, align 8, !tbaa !7
  %7 = load ptr, ptr %5, align 8, !tbaa !7
  %8 = load ptr, ptr %4, align 8, !tbaa !7
  %9 = getelementptr inbounds nuw %struct.stbi__write_context, ptr %8, i32 0, i32 0
  store ptr %7, ptr %9, align 8, !tbaa !9
  %10 = load ptr, ptr %6, align 8, !tbaa !7
  %11 = load ptr, ptr %4, align 8, !tbaa !7
  %12 = getelementptr inbounds nuw %struct.stbi__write_context, ptr %11, i32 0, i32 1
  store ptr %10, ptr %12, align 8, !tbaa !11
  ret void
}

; Function Attrs: nounwind uwtable
define i32 @stbi_write_tga_to_func(ptr noundef %0, ptr noundef %1, i32 noundef %2, i32 noundef %3, i32 noundef %4, ptr noundef %5) #0 {
  %7 = alloca ptr, align 8
  %8 = alloca ptr, align 8
  %9 = alloca i32, align 4
  %10 = alloca i32, align 4
  %11 = alloca i32, align 4
  %12 = alloca ptr, align 8
  %13 = alloca %struct.stbi__write_context, align 8
  store ptr %0, ptr %7, align 8, !tbaa !7
  store ptr %1, ptr %8, align 8, !tbaa !7
  store i32 %2, ptr %9, align 4, !tbaa !3
  store i32 %3, ptr %10, align 4, !tbaa !3
  store i32 %4, ptr %11, align 4, !tbaa !3
  store ptr %5, ptr %12, align 8, !tbaa !7
  call void @llvm.lifetime.start.p0(i64 88, ptr %13) #11
  call void @llvm.memset.p0.i64(ptr align 8 %13, i8 0, i64 88, i1 false)
  %14 = load ptr, ptr %7, align 8, !tbaa !7
  %15 = load ptr, ptr %8, align 8, !tbaa !7
  call void @stbi__start_write_callbacks(ptr noundef %13, ptr noundef %14, ptr noundef %15)
  %16 = load i32, ptr %9, align 4, !tbaa !3
  %17 = load i32, ptr %10, align 4, !tbaa !3
  %18 = load i32, ptr %11, align 4, !tbaa !3
  %19 = load ptr, ptr %12, align 8, !tbaa !7
  %20 = call i32 @stbi_write_tga_core(ptr noundef %13, i32 noundef %16, i32 noundef %17, i32 noundef %18, ptr noundef %19)
  call void @llvm.lifetime.end.p0(i64 88, ptr %13) #11
  ret i32 %20
}